; Function Attrs: mustprogress nounwind uwtable
define noundef nonnull align 8 dereferenceable(8) ptr @_ZN3gmx19GaussianOn1DLatticeaSEOS0_(ptr noundef nonnull returned align 8 dereferenceable(8) %0, ptr noundef nonnull align 8 captures(none) dereferenceable(8) %1) local_unnamed_addr #9 align 2 personality ptr @__gxx_personality_v0 {
  %3 = load ptr, ptr %1, align 8, !tbaa !28
  store ptr null, ptr %1, align 8, !tbaa !28
  %4 = load ptr, ptr %0, align 8, !tbaa !28
  store ptr %3, ptr %0, align 8, !tbaa !28
  %.not.i.i.i.i = icmp eq ptr %4, null
  br i1 %.not.i.i.i.i, label %_ZNSt10unique_ptrIN3gmx19GaussianOn1DLattice4ImplESt14default_deleteIS2_EEaSEOS5_.exit, label %5

5:                                                ; preds = %2
  %6 = getelementptr inbounds nuw i8, ptr %4, i64 40
  %7 = load ptr, ptr %6, align 8, !tbaa !17
  %.not.i.i.i.i.i.i.i.i.i = icmp eq ptr %7, null
  br i1 %.not.i.i.i.i.i.i.i.i.i, label %_ZNSt6vectorIfSaIfEED2Ev.exit.i.i.i.i.i.i, label %8

8:                                                ; preds = %5
  %9 = getelementptr inbounds nuw i8, ptr %4, i64 56
  %10 = load ptr, ptr %9, align 8, !tbaa !18
  %11 = ptrtoint ptr %10 to i64
  %12 = ptrtoint ptr %7 to i64
  %13 = sub i64 %11, %12
  tail call void @_ZdlPvm(ptr noundef nonnull %7, i64 noundef %13) #23
  br label %_ZNSt6vectorIfSaIfEED2Ev.exit.i.i.i.i.i.i

_ZNSt6vectorIfSaIfEED2Ev.exit.i.i.i.i.i.i:        ; preds = %8, %5
  %14 = getelementptr inbounds nuw i8, ptr %4, i64 16
  %15 = load ptr, ptr %14, align 8, !tbaa !17
  %.not.i.i.i1.i.i.i.i.i.i = icmp eq ptr %15, null
  br i1 %.not.i.i.i1.i.i.i.i.i.i, label %_ZNKSt14default_deleteIN3gmx19GaussianOn1DLattice4ImplEEclEPS2_.exit.i.i.i.i, label %16

16:                                               ; preds = %_ZNSt6vectorIfSaIfEED2Ev.exit.i.i.i.i.i.i
  %17 = getelementptr inbounds nuw i8, ptr %4, i64 32
  %18 = load ptr, ptr %17, align 8, !tbaa !18
  %19 = ptrtoint ptr %18 to i64
  %20 = ptrtoint ptr %15 to i64
  %21 = sub i64 %19, %20
  tail call void @_ZdlPvm(ptr noundef nonnull %15, i64 noundef %21) #23
  br label %_ZNKSt14default_deleteIN3gmx19GaussianOn1DLattice4ImplEEclEPS2_.exit.i.i.i.i

_ZNKSt14default_deleteIN3gmx19GaussianOn1DLattice4ImplEEclEPS2_.exit.i.i.i.i: ; preds = %16, %_ZNSt6vectorIfSaIfEED2Ev.exit.i.i.i.i.i.i
  tail call void @_ZdlPvm(ptr noundef nonnull %4, i64 noundef 64) #23
  br label %_ZNSt10unique_ptrIN3gmx19GaussianOn1DLattice4ImplESt14default_deleteIS2_EEaSEOS5_.exit

_ZNSt10unique_ptrIN3gmx19GaussianOn1DLattice4ImplESt14default_deleteIS2_EEaSEOS5_.exit: ; preds = %2, %_ZNKSt14default_deleteIN3gmx19GaussianOn1DLattice4ImplEEclEPS2_.exit.i.i.i.i
  ret ptr %0
}